target datalayout = "e-m:e-p270:32:32-p271:32:32-p272:64:64-i64:64-i128:128-f80:128-n8:16:32:64-S128"
target triple = "x86_64-pc-linux-gnu"

%struct._generic_N_Vector = type { ptr, ptr, ptr }
%struct._N_VectorContent_Serial = type { i64, i32, ptr }

; Function Attrs: nounwind uwtable
define double @N_VWSqrSumLocal_Serial(ptr noundef %0, ptr noundef %1) #0 {
  %3 = alloca ptr, align 8
  %4 = alloca ptr, align 8
  %5 = alloca i64, align 8
  %6 = alloca i64, align 8
  %7 = alloca double, align 8
  %8 = alloca double, align 8
  %9 = alloca ptr, align 8
  %10 = alloca ptr, align 8
  store ptr %0, ptr %3, align 8, !tbaa !10
  store ptr %1, ptr %4, align 8, !tbaa !10
  call void @llvm.lifetime.start.p0(i64 8, ptr %5) #6
  call void @llvm.lifetime.start.p0(i64 8, ptr %6) #6
  call void @llvm.lifetime.start.p0(i64 8, ptr %7) #6
  call void @llvm.lifetime.start.p0(i64 8, ptr %8) #6
  call void @llvm.lifetime.start.p0(i64 8, ptr %9) #6
  call void @llvm.lifetime.start.p0(i64 8, ptr %10) #6
  store double 0.000000e+00, ptr %7, align 8, !tbaa !72
  store ptr null, ptr %10, align 8, !tbaa !69
  store ptr null, ptr %9, align 8, !tbaa !69
  %11 = load ptr, ptr %3, align 8, !tbaa !10
  %12 = getelementptr inbounds nuw %struct._generic_N_Vector, ptr %11, i32 0, i32 0
  %13 = load ptr, ptr %12, align 8, !tbaa !61
  %14 = getelementptr inbounds nuw %struct._N_VectorContent_Serial, ptr %13, i32 0, i32 0
  %15 = load i64, ptr %14, align 8, !tbaa !62
  store i64 %15, ptr %6, align 8, !tbaa !3
  %16 = load ptr, ptr %3, align 8, !tbaa !10
  %17 = getelementptr inbounds nuw %struct._generic_N_Vector, ptr %16, i32 0, i32 0
  %18 = load ptr, ptr %17, align 8, !tbaa !61
  %19 = getelementptr inbounds nuw %struct._N_VectorContent_Serial, ptr %18, i32 0, i32 2
  %20 = load ptr, ptr %19, align 8, !tbaa !67
  store ptr %20, ptr %9, align 8, !tbaa !69
  %21 = load ptr, ptr %4, align 8, !tbaa !10
  %22 = getelementptr inbounds nuw %struct._generic_N_Vector, ptr %21, i32 0, i32 0
  %23 = load ptr, ptr %22, align 8, !tbaa !61
  %24 = getelementptr inbounds nuw %struct._N_VectorContent_Serial, ptr %23, i32 0, i32 2
  %25 = load ptr, ptr %24, align 8, !tbaa !67
  store ptr %25, ptr %10, align 8, !tbaa !69
  store i64 0, ptr %5, align 8, !tbaa !3
  br label %26

26:                                               ; preds = %44, %2
  %27 = load i64, ptr %5, align 8, !tbaa !3
  %28 = load i64, ptr %6, align 8, !tbaa !3
  %29 = icmp slt i64 %27, %28
  br i1 %29, label %30, label %47

30:                                               ; preds = %26
  %31 = load ptr, ptr %9, align 8, !tbaa !69
  %32 = load i64, ptr %5, align 8, !tbaa !3
  %33 = getelementptr inbounds double, ptr %31, i64 %32
  %34 = load double, ptr %33, align 8, !tbaa !72
  %35 = load ptr, ptr %10, align 8, !tbaa !69
  %36 = load i64, ptr %5, align 8, !tbaa !3
  %37 = getelementptr inbounds double, ptr %35, i64 %36
  %38 = load double, ptr %37, align 8, !tbaa !72
  %39 = fmul double %34, %38
  store double %39, ptr %8, align 8, !tbaa !72
  %40 = load double, ptr %8, align 8, !tbaa !72
  %41 = load double, ptr %8, align 8, !tbaa !72
  %42 = load double, ptr %7, align 8, !tbaa !72
  %43 = call double @llvm.fmuladd.f64(double %40, double %41, double %42)
  store double %43, ptr %7, align 8, !tbaa !72
  br label %44

44:                                               ; preds = %30
  %45 = load i64, ptr %5, align 8, !tbaa !3
  %46 = add nsw i64 %45, 1
  store i64 %46, ptr %5, align 8, !tbaa !3
  br label %26

47:                                               ; preds = %26
  %48 = load double, ptr %7, align 8, !tbaa !72
  call void @llvm.lifetime.end.p0(i64 8, ptr %10) #6
  call void @llvm.lifetime.end.p0(i64 8, ptr %9) #6
  call void @llvm.lifetime.end.p0(i64 8, ptr %8) #6
  call void @llvm.lifetime.end.p0(i64 8, ptr %7) #6
  call void @llvm.lifetime.end.p0(i64 8, ptr %6) #6
  call void @llvm.lifetime.end.p0(i64 8, ptr %5) #6
  ret double %48
}

; Function Attrs: nounwind uwtable
define double @N_VWrmsNorm_Serial(ptr noundef %0, ptr noundef %1) #0 {
  %3 = alloca ptr, align 8
  %4 = alloca ptr, align 8
  %5 = alloca ptr, align 8
  %6 = alloca double, align 8
  store ptr %0, ptr %3, align 8, !tbaa !10
  store ptr %1, ptr %4, align 8, !tbaa !10
  call void @llvm.lifetime.start.p0(i64 8, ptr %5) #6
  %7 = load ptr, ptr %3, align 8, !tbaa !10
  %8 = getelementptr inbounds nuw %struct._generic_N_Vector, ptr %7, i32 0, i32 2
  %9 = load ptr, ptr %8, align 8, !tbaa !68
  store ptr %9, ptr %5, align 8, !tbaa !7
  call void @llvm.lifetime.start.p0(i64 8, ptr %6) #6
  %10 = load ptr, ptr %3, align 8, !tbaa !10
  %11 = load ptr, ptr %4, align 8, !tbaa !10
  %12 = call double @N_VWSqrSumLocal_Serial(ptr noundef %10, ptr noundef %11)
  store double %12, ptr %6, align 8, !tbaa !72
  %13 = load double, ptr %6, align 8, !tbaa !72
  %14 = load ptr, ptr %3, align 8, !tbaa !10
  %15 = getelementptr inbounds nuw %struct._generic_N_Vector, ptr %14, i32 0, i32 0
  %16 = load ptr, ptr %15, align 8, !tbaa !61
  %17 = getelementptr inbounds nuw %struct._N_VectorContent_Serial, ptr %16, i32 0, i32 0
  %18 = load i64, ptr %17, align 8, !tbaa !62
  %19 = sitofp i64 %18 to double
  %20 = fdiv double %13, %19
  %21 = fcmp ole double %20, 0.000000e+00
  br i1 %21, label %22, label %23

22:                                               ; preds = %2
  br label %33

23:                                               ; preds = %2
  %24 = load double, ptr %6, align 8, !tbaa !72
  %25 = load ptr, ptr %3, align 8, !tbaa !10
  %26 = getelementptr inbounds nuw %struct._generic_N_Vector, ptr %25, i32 0, i32 0
  %27 = load ptr, ptr %26, align 8, !tbaa !61
  %28 = getelementptr inbounds nuw %struct._N_VectorContent_Serial, ptr %27, i32 0, i32 0
  %29 = load i64, ptr %28, align 8, !tbaa !62
  %30 = sitofp i64 %29 to double
  %31 = fdiv double %24, %30
  %32 = call double @sqrt(double noundef %31) #6, !tbaa !74
  br label %33

33:                                               ; preds = %23, %22
  %34 = phi double [ 0.000000e+00, %22 ], [ %32, %23 ]
  store double %34, ptr %6, align 8, !tbaa !72
  %35 = load double, ptr %6, align 8, !tbaa !72
  call void @llvm.lifetime.end.p0(i64 8, ptr %6) #6
  call void @llvm.lifetime.end.p0(i64 8, ptr %5) #6
  ret double %35
}

; Function Attrs: nounwind uwtable
define i32 @N_VWrmsNormVectorArray_Serial(i32 noundef %0, ptr noundef %1, ptr noundef %2, ptr noundef %3) #0 {
  %5 = alloca i32, align 4
  %6 = alloca i32, align 4
  %7 = alloca ptr, align 8
  %8 = alloca ptr, align 8
  %9 = alloca ptr, align 8
  %10 = alloca ptr, align 8
  %11 = alloca i32, align 4
  %12 = alloca i64, align 8
  %13 = alloca i64, align 8
  %14 = alloca ptr, align 8
  %15 = alloca ptr, align 8
  %16 = alloca i32, align 4
  store i32 %0, ptr %6, align 4, !tbaa !74
  store ptr %1, ptr %7, align 8, !tbaa !75
  store ptr %2, ptr %8, align 8, !tbaa !75
  store ptr %3, ptr %9, align 8, !tbaa !69
  call void @llvm.lifetime.start.p0(i64 8, ptr %10) #6
  %17 = load ptr, ptr %7, align 8, !tbaa !75
  %18 = getelementptr inbounds ptr, ptr %17, i64 0
  %19 = load ptr, ptr %18, align 8, !tbaa !10
  %20 = getelementptr inbounds nuw %struct._generic_N_Vector, ptr %19, i32 0, i32 2
  %21 = load ptr, ptr %20, align 8, !tbaa !68
  store ptr %21, ptr %10, align 8, !tbaa !7
  call void @llvm.lifetime.start.p0(i64 4, ptr %11) #6
  call void @llvm.lifetime.start.p0(i64 8, ptr %12) #6
  call void @llvm.lifetime.start.p0(i64 8, ptr %13) #6
  call void @llvm.lifetime.start.p0(i64 8, ptr %14) #6
  store ptr null, ptr %14, align 8, !tbaa !69
  call void @llvm.lifetime.start.p0(i64 8, ptr %15) #6
  store ptr null, ptr %15, align 8, !tbaa !69
  %22 = load i32, ptr %6, align 4, !tbaa !74
  %23 = icmp eq i32 %22, 1
  br i1 %23, label %24, label %34

24:                                               ; preds = %4
  %25 = load ptr, ptr %7, align 8, !tbaa !75
  %26 = getelementptr inbounds ptr, ptr %25, i64 0
  %27 = load ptr, ptr %26, align 8, !tbaa !10
  %28 = load ptr, ptr %8, align 8, !tbaa !75
  %29 = getelementptr inbounds ptr, ptr %28, i64 0
  %30 = load ptr, ptr %29, align 8, !tbaa !10
  %31 = call double @N_VWrmsNorm_Serial(ptr noundef %27, ptr noundef %30)
  %32 = load ptr, ptr %9, align 8, !tbaa !69
  %33 = getelementptr inbounds double, ptr %32, i64 0
  store double %31, ptr %33, align 8, !tbaa !72
  store i32 0, ptr %5, align 4
  store i32 1, ptr %16, align 4
  br label %132

34:                                               ; preds = %4
  %35 = load ptr, ptr %7, align 8, !tbaa !75
  %36 = getelementptr inbounds ptr, ptr %35, i64 0
  %37 = load ptr, ptr %36, align 8, !tbaa !10
  %38 = getelementptr inbounds nuw %struct._generic_N_Vector, ptr %37, i32 0, i32 0
  %39 = load ptr, ptr %38, align 8, !tbaa !61
  %40 = getelementptr inbounds nuw %struct._N_VectorContent_Serial, ptr %39, i32 0, i32 0
  %41 = load i64, ptr %40, align 8, !tbaa !62
  store i64 %41, ptr %13, align 8, !tbaa !3
  store i32 0, ptr %11, align 4, !tbaa !74
  br label %42

42:                                               ; preds = %128, %34
  %43 = load i32, ptr %11, align 4, !tbaa !74
  %44 = load i32, ptr %6, align 4, !tbaa !74
  %45 = icmp slt i32 %43, %44
  br i1 %45, label %46, label %131

46:                                               ; preds = %42
  %47 = load ptr, ptr %7, align 8, !tbaa !75
  %48 = load i32, ptr %11, align 4, !tbaa !74
  %49 = sext i32 %48 to i64
  %50 = getelementptr inbounds ptr, ptr %47, i64 %49
  %51 = load ptr, ptr %50, align 8, !tbaa !10
  %52 = getelementptr inbounds nuw %struct._generic_N_Vector, ptr %51, i32 0, i32 0
  %53 = load ptr, ptr %52, align 8, !tbaa !61
  %54 = getelementptr inbounds nuw %struct._N_VectorContent_Serial, ptr %53, i32 0, i32 2
  %55 = load ptr, ptr %54, align 8, !tbaa !67
  store ptr %55, ptr %15, align 8, !tbaa !69
  %56 = load ptr, ptr %8, align 8, !tbaa !75
  %57 = load i32, ptr %11, align 4, !tbaa !74
  %58 = sext i32 %57 to i64
  %59 = getelementptr inbounds ptr, ptr %56, i64 %58
  %60 = load ptr, ptr %59, align 8, !tbaa !10
  %61 = getelementptr inbounds nuw %struct._generic_N_Vector, ptr %60, i32 0, i32 0
  %62 = load ptr, ptr %61, align 8, !tbaa !61
  %63 = getelementptr inbounds nuw %struct._N_VectorContent_Serial, ptr %62, i32 0, i32 2
  %64 = load ptr, ptr %63, align 8, !tbaa !67
  store ptr %64, ptr %14, align 8, !tbaa !69
  %65 = load ptr, ptr %9, align 8, !tbaa !69
  %66 = load i32, ptr %11, align 4, !tbaa !74
  %67 = sext i32 %66 to i64
  %68 = getelementptr inbounds double, ptr %65, i64 %67
  store double 0.000000e+00, ptr %68, align 8, !tbaa !72
  store i64 0, ptr %12, align 8, !tbaa !3
  br label %69

69:                                               ; preds = %98, %46
  %70 = load i64, ptr %12, align 8, !tbaa !3
  %71 = load i64, ptr %13, align 8, !tbaa !3
  %72 = icmp slt i64 %70, %71
  br i1 %72, label %73, label %101

73:                                               ; preds = %69
  %74 = load ptr, ptr %15, align 8, !tbaa !69
  %75 = load i64, ptr %12, align 8, !tbaa !3
  %76 = getelementptr inbounds double, ptr %74, i64 %75
  %77 = load double, ptr %76, align 8, !tbaa !72
  %78 = load ptr, ptr %14, align 8, !tbaa !69
  %79 = load i64, ptr %12, align 8, !tbaa !3
  %80 = getelementptr inbounds double, ptr %78, i64 %79
  %81 = load double, ptr %80, align 8, !tbaa !72
  %82 = fmul double %77, %81
  %83 = load ptr, ptr %15, align 8, !tbaa !69
  %84 = load i64, ptr %12, align 8, !tbaa !3
  %85 = getelementptr inbounds double, ptr %83, i64 %84
  %86 = load double, ptr %85, align 8, !tbaa !72
  %87 = load ptr, ptr %14, align 8, !tbaa !69
  %88 = load i64, ptr %12, align 8, !tbaa !3
  %89 = getelementptr inbounds double, ptr %87, i64 %88
  %90 = load double, ptr %89, align 8, !tbaa !72
  %91 = fmul double %86, %90
  %92 = load ptr, ptr %9, align 8, !tbaa !69
  %93 = load i32, ptr %11, align 4, !tbaa !74
  %94 = sext i32 %93 to i64
  %95 = getelementptr inbounds double, ptr %92, i64 %94
  %96 = load double, ptr %95, align 8, !tbaa !72
  %97 = call double @llvm.fmuladd.f64(double %82, double %91, double %96)
  store double %97, ptr %95, align 8, !tbaa !72
  br label %98

98:                                               ; preds = %73
  %99 = load i64, ptr %12, align 8, !tbaa !3
  %100 = add nsw i64 %99, 1
  store i64 %100, ptr %12, align 8, !tbaa !3
  br label %69

101:                                              ; preds = %69
  %102 = load ptr, ptr %9, align 8, !tbaa !69
  %103 = load i32, ptr %11, align 4, !tbaa !74
  %104 = sext i32 %103 to i64
  %105 = getelementptr inbounds double, ptr %102, i64 %104
  %106 = load double, ptr %105, align 8, !tbaa !72
  %107 = load i64, ptr %13, align 8, !tbaa !3
  %108 = sitofp i64 %107 to double
  %109 = fdiv double %106, %108
  %110 = fcmp ole double %109, 0.000000e+00
  br i1 %110, label %111, label %112

111:                                              ; preds = %101
  br label %122

112:                                              ; preds = %101
  %113 = load ptr, ptr %9, align 8, !tbaa !69
  %114 = load i32, ptr %11, align 4, !tbaa !74
  %115 = sext i32 %114 to i64
  %116 = getelementptr inbounds double, ptr %113, i64 %115
  %117 = load double, ptr %116, align 8, !tbaa !72
  %118 = load i64, ptr %13, align 8, !tbaa !3
  %119 = sitofp i64 %118 to double
  %120 = fdiv double %117, %119
  %121 = call double @sqrt(double noundef %120) #6, !tbaa !74
  br label %122

122:                                              ; preds = %112, %111
  %123 = phi double [ 0.000000e+00, %111 ], [ %121, %112 ]
  %124 = load ptr, ptr %9, align 8, !tbaa !69
  %125 = load i32, ptr %11, align 4, !tbaa !74
  %126 = sext i32 %125 to i64
  %127 = getelementptr inbounds double, ptr %124, i64 %126
  store double %123, ptr %127, align 8, !tbaa !72
  br label %128

128:                                              ; preds = %122
  %129 = load i32, ptr %11, align 4, !tbaa !74
  %130 = add nsw i32 %129, 1
  store i32 %130, ptr %11, align 4, !tbaa !74
  br label %42

131:                                              ; preds = %42
  store i32 0, ptr %5, align 4
  store i32 1, ptr %16, align 4
  br label %132

132:                                              ; preds = %131, %24
  call void @llvm.lifetime.end.p0(i64 8, ptr %15) #6
  call void @llvm.lifetime.end.p0(i64 8, ptr %14) #6
  call void @llvm.lifetime.end.p0(i64 8, ptr %13) #6
  call void @llvm.lifetime.end.p0(i64 8, ptr %12) #6
  call void @llvm.lifetime.end.p0(i64 4, ptr %11) #6
  call void @llvm.lifetime.end.p0(i64 8, ptr %10) #6
  %133 = load i32, ptr %5, align 4
  ret i32 %133
}