; Function Attrs: nofree nounwind memory(readwrite, inaccessiblemem: write) uwtable
define noundef i32 @N_VWrmsNormVectorArray_Serial(i32 noundef %0, ptr noundef readonly captures(none) %1, ptr noundef readonly captures(none) %2, ptr noundef writeonly captures(none) %3) #9 {
  %5 = load ptr, ptr %1, align 8, !tbaa !67
  %6 = icmp eq i32 %0, 1
  br i1 %6, label %7, label %30

7:                                                ; preds = %4
  %8 = load ptr, ptr %2, align 8, !tbaa !67
  %9 = load ptr, ptr %5, align 8, !tbaa !54
  %10 = load i64, ptr %9, align 8, !tbaa !55
  %11 = getelementptr inbounds nuw i8, ptr %9, i64 16
  %12 = load ptr, ptr %11, align 8, !tbaa !61
  %13 = load ptr, ptr %8, align 8, !tbaa !54
  %14 = getelementptr inbounds nuw i8, ptr %13, i64 16
  %15 = load ptr, ptr %14, align 8, !tbaa !61
  %16 = icmp sgt i64 %10, 0
  br i1 %16, label %.lr.ph.i.i, label %N_VWSqrSumLocal_Serial.exit.i

.lr.ph.i.i:                                       ; preds = %7, %.lr.ph.i.i
  %.015.i.i = phi i64 [ %23, %.lr.ph.i.i ], [ 0, %7 ]
  %.01314.i.i = phi double [ %22, %.lr.ph.i.i ], [ 0.000000e+00, %7 ]
  %17 = getelementptr inbounds nuw double, ptr %12, i64 %.015.i.i
  %18 = load double, ptr %17, align 8, !tbaa !64
  %19 = getelementptr inbounds nuw double, ptr %15, i64 %.015.i.i
  %20 = load double, ptr %19, align 8, !tbaa !64
  %21 = fmul double %18, %20
  %22 = tail call double @llvm.fmuladd.f64(double %21, double %21, double %.01314.i.i)
  %23 = add nuw nsw i64 %.015.i.i, 1
  %exitcond.not.i.i = icmp eq i64 %23, %10
  br i1 %exitcond.not.i.i, label %N_VWSqrSumLocal_Serial.exit.i, label %.lr.ph.i.i

N_VWSqrSumLocal_Serial.exit.i:                    ; preds = %.lr.ph.i.i, %7
  %.013.lcssa.i.i = phi double [ 0.000000e+00, %7 ], [ %22, %.lr.ph.i.i ]
  %24 = sitofp i64 %10 to double
  %25 = fdiv double %.013.lcssa.i.i, %24
  %26 = fcmp ugt double %25, 0.000000e+00
  br i1 %26, label %27, label %N_VWrmsNorm_Serial.exit

27:                                               ; preds = %N_VWSqrSumLocal_Serial.exit.i
  %28 = tail call double @sqrt(double noundef %25) #20, !tbaa !66
  br label %N_VWrmsNorm_Serial.exit

N_VWrmsNorm_Serial.exit:                          ; preds = %N_VWSqrSumLocal_Serial.exit.i, %27
  %29 = phi double [ %28, %27 ], [ 0.000000e+00, %N_VWSqrSumLocal_Serial.exit.i ]
  store double %29, ptr %3, align 8, !tbaa !64
  br label %.loopexit

30:                                               ; preds = %4
  %31 = load ptr, ptr %5, align 8, !tbaa !54
  %32 = load i64, ptr %31, align 8, !tbaa !55
  %33 = icmp sgt i32 %0, 0
  br i1 %33, label %.lr.ph43, label %.loopexit

.lr.ph43:                                         ; preds = %30
  %34 = icmp sgt i64 %32, 0
  %35 = sitofp i64 %32 to double
  %wide.trip.count50 = zext nneg i32 %0 to i64
  br i1 %34, label %.lr.ph.us, label %.lr.ph43.split.preheader

.lr.ph43.split.preheader:                         ; preds = %.lr.ph43
  %36 = fdiv double 0.000000e+00, %35
  %37 = fcmp ugt double %36, 0.000000e+00
  br label %.lr.ph43.split

.lr.ph.us:                                        ; preds = %.lr.ph43, %51
  %indvars.iv47 = phi i64 [ %indvars.iv.next48, %51 ], [ 0, %.lr.ph43 ]
  %38 = getelementptr inbounds nuw ptr, ptr %1, i64 %indvars.iv47
  %39 = load ptr, ptr %38, align 8, !tbaa !67
  %40 = load ptr, ptr %39, align 8, !tbaa !54
  %41 = getelementptr inbounds nuw i8, ptr %40, i64 16
  %42 = load ptr, ptr %41, align 8, !tbaa !61
  %43 = getelementptr inbounds nuw ptr, ptr %2, i64 %indvars.iv47
  %44 = load ptr, ptr %43, align 8, !tbaa !67
  %45 = load ptr, ptr %44, align 8, !tbaa !54
  %46 = getelementptr inbounds nuw i8, ptr %45, i64 16
  %47 = load ptr, ptr %46, align 8, !tbaa !61
  %48 = getelementptr inbounds nuw double, ptr %3, i64 %indvars.iv47
  store double 0.000000e+00, ptr %48, align 8, !tbaa !64
  br label %53

49:                                               ; preds = %._crit_edge.us
  %50 = tail call double @sqrt(double noundef %62) #20, !tbaa !66
  br label %51

51:                                               ; preds = %49, %._crit_edge.us
  %52 = phi double [ %50, %49 ], [ 0.000000e+00, %._crit_edge.us ]
  store double %52, ptr %48, align 8, !tbaa !64
  %indvars.iv.next48 = add nuw nsw i64 %indvars.iv47, 1
  %exitcond51.not = icmp eq i64 %indvars.iv.next48, %wide.trip.count50
  br i1 %exitcond51.not, label %.loopexit, label %.lr.ph.us

53:                                               ; preds = %.lr.ph.us, %53
  %54 = phi double [ 0.000000e+00, %.lr.ph.us ], [ %60, %53 ]
  %.03640.us = phi i64 [ 0, %.lr.ph.us ], [ %61, %53 ]
  %55 = getelementptr inbounds nuw double, ptr %42, i64 %.03640.us
  %56 = load double, ptr %55, align 8, !tbaa !64
  %57 = getelementptr inbounds nuw double, ptr %47, i64 %.03640.us
  %58 = load double, ptr %57, align 8, !tbaa !64
  %59 = fmul double %56, %58
  %60 = tail call double @llvm.fmuladd.f64(double %59, double %59, double %54)
  store double %60, ptr %48, align 8, !tbaa !64
  %61 = add nuw nsw i64 %.03640.us, 1
  %exitcond46.not = icmp eq i64 %61, %32
  br i1 %exitcond46.not, label %._crit_edge.us, label %53

._crit_edge.us:                                   ; preds = %53
  %62 = fdiv double %60, %35
  %63 = fcmp ugt double %62, 0.000000e+00
  br i1 %63, label %49, label %51

.lr.ph43.split:                                   ; preds = %.lr.ph43.split.preheader, %67
  %indvars.iv = phi i64 [ 0, %.lr.ph43.split.preheader ], [ %indvars.iv.next, %67 ]
  %64 = getelementptr inbounds nuw double, ptr %3, i64 %indvars.iv
  br i1 %37, label %65, label %67

65:                                               ; preds = %.lr.ph43.split
  %66 = tail call double @sqrt(double noundef %36) #20, !tbaa !66
  br label %67

67:                                               ; preds = %.lr.ph43.split, %65
  %68 = phi double [ %66, %65 ], [ 0.000000e+00, %.lr.ph43.split ]
  store double %68, ptr %64, align 8, !tbaa !64
  %indvars.iv.next = add nuw nsw i64 %indvars.iv, 1
  %exitcond.not = icmp eq i64 %indvars.iv.next, %wide.trip.count50
  br i1 %exitcond.not, label %.loopexit, label %.lr.ph43.split

.loopexit:                                        ; preds = %67, %51, %30, %N_VWrmsNorm_Serial.exit
  ret i32 0
}